; Function Attrs: mustprogress uwtable
define hidden i32 @_ZN2pb6solver7ba_sort8mk_falseEv(ptr noundef nonnull align 8 dereferenceable(24) %this) local_unnamed_addr #3 align 2 {
entry:
  %agg.tmp.i = alloca %"class.sat::status", align 8
  call void @llvm.lifetime.start.p0(i64 16, ptr nonnull %agg.tmp.i)
  %m_true.i = getelementptr inbounds i8, ptr %this, i64 8
  %0 = load i32, ptr %m_true.i, align 8
  %.b = load i1, ptr @_ZN3satL12null_literalE.0, align 4
  %1 = select i1 %.b, i32 -2, i32 0
  %cmp.i.i = icmp eq i32 %0, %1
  br i1 %cmp.i.i, label %if.then.i, label %if.end.i

if.then.i:                                        ; preds = %entry
  %2 = load ptr, ptr %this, align 8
  %m_solver.i.i = getelementptr inbounds i8, ptr %2, i64 24
  %3 = load ptr, ptr %m_solver.i.i, align 8
  %call3.i = tail call noundef i32 @_ZN3sat6solver6mk_varEbb(ptr noundef nonnull align 8 dereferenceable(4408) %3, i1 noundef zeroext false, i1 noundef zeroext false)
  %shl.i.i = shl i32 %call3.i, 1
  store i32 %shl.i.i, ptr %m_true.i, align 8
  %4 = load ptr, ptr %this, align 8
  %m_solver.i1.i = getelementptr inbounds i8, ptr %4, i64 24
  %5 = load ptr, ptr %m_solver.i1.i, align 8
  store i32 1, ptr %agg.tmp.i, align 8, !alias.scope !121
  %m_orig.i.i.i = getelementptr inbounds i8, ptr %agg.tmp.i, i64 4
  store i32 -1, ptr %m_orig.i.i.i, align 4, !alias.scope !121
  %m_hint.i.i.i = getelementptr inbounds i8, ptr %agg.tmp.i, i64 8
  store ptr null, ptr %m_hint.i.i.i, align 8, !alias.scope !121
  %call8.i = call noundef ptr @_ZN3sat6solver9mk_clauseEjPNS_7literalENS_6statusE(ptr noundef nonnull align 8 dereferenceable(4408) %5, i32 noundef 1, ptr noundef nonnull %m_true.i, ptr noundef nonnull %agg.tmp.i)
  %.pre.i = load i32, ptr %m_true.i, align 8
  %.pre3.i.b = load i1, ptr @_ZN3satL12null_literalE.0, align 4
  %.pre3.i = select i1 %.pre3.i.b, i32 -2, i32 0
  br label %if.end.i

if.end.i:                                         ; preds = %if.then.i, %entry
  %6 = phi i32 [ %.pre3.i, %if.then.i ], [ %1, %entry ]
  %7 = phi i32 [ %.pre.i, %if.then.i ], [ %0, %entry ]
  %cmp.i2.not.i = icmp eq i32 %7, %6
  br i1 %cmp.i2.not.i, label %if.then11.i, label %_ZN2pb6solver7ba_sort7mk_trueEv.exit

if.then11.i:                                      ; preds = %if.end.i
  call void @_Z26notify_assertion_violationPKciS0_(ptr noundef nonnull @.str, i32 noundef 2101, ptr noundef nonnull @.str.85)
  call void @exit(i32 noundef 114) #27
  unreachable

_ZN2pb6solver7ba_sort7mk_trueEv.exit:             ; preds = %if.end.i
  call void @llvm.lifetime.end.p0(i64 16, ptr nonnull %agg.tmp.i)
  %xor.i = xor i32 %7, 1
  ret i32 %xor.i
}